; Function Attrs: mustprogress uwtable
define void @_ZN5folly10SSLContext12authenticateEbbRKNSt7__cxx1112basic_stringIcSt11char_traitsIcESaIcEEE(ptr noundef nonnull align 8 dereferenceable(304) initializes((28, 29)) %0, i1 noundef zeroext %1, i1 noundef zeroext %2, ptr noundef nonnull align 8 dereferenceable(32) %3) unnamed_addr #2 align 2 personality ptr @__gxx_personality_v0 {
  br i1 %1, label %5, label %9

5:                                                ; preds = %4
  %6 = zext i1 %2 to i8
  %7 = getelementptr inbounds nuw i8, ptr %0, i64 28
  store i8 %6, ptr %7, align 4, !tbaa !91
  %8 = getelementptr inbounds nuw i8, ptr %0, i64 32
  tail call void @_ZNSt7__cxx1112basic_stringIcSt11char_traitsIcESaIcEE9_M_assignERKS4_(ptr noundef nonnull align 8 dereferenceable(32) %8, ptr noundef nonnull align 8 dereferenceable(32) %3)
  br label %14

9:                                                ; preds = %4
  %10 = getelementptr inbounds nuw i8, ptr %0, i64 28
  store i8 0, ptr %10, align 4, !tbaa !91
  %11 = getelementptr inbounds nuw i8, ptr %0, i64 32
  %12 = getelementptr inbounds nuw i8, ptr %0, i64 40
  store i64 0, ptr %12, align 8, !tbaa !79
  %13 = load ptr, ptr %11, align 8, !tbaa !73
  store i8 0, ptr %13, align 1, !tbaa !80
  br label %14

14:                                               ; preds = %9, %5
  %.0 = phi i32 [ 7, %5 ], [ 0, %9 ]
  %15 = getelementptr inbounds nuw i8, ptr %0, i64 8
  %16 = load ptr, ptr %15, align 8, !tbaa !10
  tail call void @SSL_CTX_set_verify(ptr noundef %16, i32 noundef %.0, ptr noundef null)
  ret void
}